target datalayout = "e-m:e-p270:32:32-p271:32:32-p272:64:64-i64:64-i128:128-f80:128-n8:16:32:64-S128"
target triple = "x86_64-unknown-linux-gnu"

%struct.sharedObjectsStruct = type { ptr, ptr, ptr, ptr, ptr, ptr, ptr, ptr, [4 x ptr], [4 x ptr], [4 x ptr], [4 x ptr], ptr, ptr, ptr, ptr, ptr, ptr, ptr, ptr, ptr, ptr, ptr, ptr, ptr, ptr, ptr, ptr, ptr, ptr, ptr, ptr, ptr, ptr, ptr, ptr, ptr, ptr, ptr, ptr, ptr, ptr, ptr, ptr, ptr, ptr, ptr, ptr, ptr, ptr, ptr, ptr, ptr, ptr, ptr, ptr, ptr, ptr, ptr, ptr, ptr, ptr, ptr, ptr, ptr, ptr, ptr, ptr, ptr, ptr, ptr, ptr, ptr, ptr, ptr, ptr, ptr, ptr, ptr, ptr, ptr, ptr, ptr, ptr, ptr, [10 x ptr], [10000 x ptr], [32 x ptr], [32 x ptr], [32 x ptr], [32 x ptr], ptr, ptr }
%struct.redisObject = type { i32, i32, ptr }

@shared = external global %struct.sharedObjectsStruct, align 8
@.str.7 = private unnamed_addr constant [3 x i8] c"%s\00", align 1

; Function Attrs: nounwind uwtable
define dso_local void @mallctl_int(ptr noundef %c, ptr noundef %argv, i32 noundef %argc) #0 {
entry:
  %c.addr = alloca ptr, align 8
  %argv.addr = alloca ptr, align 8
  %argc.addr = alloca i32, align 4
  %ret = alloca i32, align 4
  %old = alloca i64, align 8
  %val = alloca i64, align 8
  %ll = alloca i64, align 8
  %sz = alloca i64, align 8
  %zz = alloca i64, align 8
  store ptr %c, ptr %c.addr, align 8
  store ptr %argv, ptr %argv.addr, align 8
  store i32 %argc, ptr %argc.addr, align 4
  store i64 0, ptr %old, align 8
  %0 = load i32, ptr %argc.addr, align 4
  %cmp = icmp sgt i32 %0, 1
  br i1 %cmp, label %if.then, label %if.end3

if.then:                                          ; preds = %entry
  %1 = load ptr, ptr %c.addr, align 8
  %2 = load ptr, ptr %argv.addr, align 8
  %arrayidx = getelementptr inbounds ptr, ptr %2, i64 1
  %3 = load ptr, ptr %arrayidx, align 8
  %call = call i32 @getLongLongFromObjectOrReply(ptr noundef %1, ptr noundef %3, ptr noundef %ll, ptr noundef null)
  %cmp1 = icmp ne i32 %call, 0
  br i1 %cmp1, label %if.then2, label %if.end

if.then2:                                         ; preds = %if.then
  br label %return

if.end:                                           ; preds = %if.then
  %4 = load i64, ptr %ll, align 8
  store i64 %4, ptr %val, align 8
  br label %if.end3

if.end3:                                          ; preds = %if.end, %entry
  store i64 8, ptr %sz, align 8
  br label %while.cond

while.cond:                                       ; preds = %if.then25, %if.end3
  %5 = load i64, ptr %sz, align 8
  %cmp4 = icmp ugt i64 %5, 0
  br i1 %cmp4, label %while.body, label %while.end

while.body:                                       ; preds = %while.cond
  %6 = load i64, ptr %sz, align 8
  store i64 %6, ptr %zz, align 8
  %7 = load ptr, ptr %argv.addr, align 8
  %arrayidx5 = getelementptr inbounds ptr, ptr %7, i64 0
  %8 = load ptr, ptr %arrayidx5, align 8
  %ptr = getelementptr inbounds %struct.redisObject, ptr %8, i32 0, i32 2
  %9 = load ptr, ptr %ptr, align 8
  %10 = load i32, ptr %argc.addr, align 4
  %cmp6 = icmp sgt i32 %10, 1
  br i1 %cmp6, label %cond.true, label %cond.false

cond.true:                                        ; preds = %while.body
  br label %cond.end

cond.false:                                       ; preds = %while.body
  br label %cond.end

cond.end:                                         ; preds = %cond.false, %cond.true
  %cond = phi ptr [ %val, %cond.true ], [ null, %cond.false ]
  %11 = load i32, ptr %argc.addr, align 4
  %cmp7 = icmp sgt i32 %11, 1
  br i1 %cmp7, label %cond.true8, label %cond.false9

cond.true8:                                       ; preds = %cond.end
  %12 = load i64, ptr %sz, align 8
  br label %cond.end10

cond.false9:                                      ; preds = %cond.end
  br label %cond.end10

cond.end10:                                       ; preds = %cond.false9, %cond.true8
  %cond11 = phi i64 [ %12, %cond.true8 ], [ 0, %cond.false9 ]
  %call12 = call i32 @je_mallctl(ptr noundef %9, ptr noundef %old, ptr noundef %zz, ptr noundef %cond, i64 noundef %cond11) #14
  store i32 %call12, ptr %ret, align 4
  %tobool = icmp ne i32 %call12, 0
  br i1 %tobool, label %if.then13, label %if.else

if.then13:                                        ; preds = %cond.end10
  %13 = load i32, ptr %ret, align 4
  %cmp14 = icmp eq i32 %13, 1
  br i1 %cmp14, label %land.lhs.true, label %if.end23

land.lhs.true:                                    ; preds = %if.then13
  %14 = load i32, ptr %argc.addr, align 4
  %cmp15 = icmp sgt i32 %14, 1
  br i1 %cmp15, label %if.then16, label %if.end23

if.then16:                                        ; preds = %land.lhs.true
  %15 = load ptr, ptr %argv.addr, align 8
  %arrayidx17 = getelementptr inbounds ptr, ptr %15, i64 0
  %16 = load ptr, ptr %arrayidx17, align 8
  %ptr18 = getelementptr inbounds %struct.redisObject, ptr %16, i32 0, i32 2
  %17 = load ptr, ptr %ptr18, align 8
  %18 = load i64, ptr %sz, align 8
  %call19 = call i32 @je_mallctl(ptr noundef %17, ptr noundef null, ptr noundef null, ptr noundef %val, i64 noundef %18) #14
  store i32 %call19, ptr %ret, align 4
  %tobool20 = icmp ne i32 %call19, 0
  br i1 %tobool20, label %if.end22, label %if.then21

if.then21:                                        ; preds = %if.then16
  %19 = load ptr, ptr %c.addr, align 8
  %20 = load ptr, ptr @shared, align 8
  call void @addReply(ptr noundef %19, ptr noundef %20)
  br label %return

if.end22:                                         ; preds = %if.then16
  br label %if.end23

if.end23:                                         ; preds = %if.end22, %land.lhs.true, %if.then13
  %21 = load i32, ptr %ret, align 4
  %cmp24 = icmp eq i32 %21, 22
  br i1 %cmp24, label %if.then25, label %if.end26

if.then25:                                        ; preds = %if.end23
  %22 = load i64, ptr %sz, align 8
  %div = udiv i64 %22, 2
  store i64 %div, ptr %sz, align 8
  br label %while.cond, !llvm.loop !16

if.end26:                                         ; preds = %if.end23
  %23 = load ptr, ptr %c.addr, align 8
  %24 = load i32, ptr %ret, align 4
  %call27 = call ptr @strerror(i32 noundef %24) #14
  call void (ptr, ptr, ...) @addReplyErrorFormat(ptr noundef %23, ptr noundef @.str.7, ptr noundef %call27)
  br label %return

if.else:                                          ; preds = %cond.end10
  %25 = load ptr, ptr %c.addr, align 8
  %26 = load i64, ptr %old, align 8
  call void @addReplyLongLong(ptr noundef %25, i64 noundef %26)
  br label %return

while.end:                                        ; preds = %while.cond
  %27 = load ptr, ptr %c.addr, align 8
  %call28 = call ptr @strerror(i32 noundef 22) #14
  call void (ptr, ptr, ...) @addReplyErrorFormat(ptr noundef %27, ptr noundef @.str.7, ptr noundef %call28)
  br label %return

return:                                           ; preds = %while.end, %if.else, %if.end26, %if.then21, %if.then2
  ret void
}