; Function Attrs: nounwind uwtable
define dso_local void @mallctl_int(ptr noundef %c, ptr nocapture noundef readonly %argv, i32 noundef %argc) local_unnamed_addr #0 {
entry:
  %old = alloca i64, align 8
  %val = alloca i64, align 8
  %ll = alloca i64, align 8
  %zz = alloca i64, align 8
  store i64 0, ptr %old, align 8
  %cmp = icmp sgt i32 %argc, 1
  br i1 %cmp, label %if.then, label %while.body.us

if.then:                                          ; preds = %entry
  %arrayidx = getelementptr inbounds i8, ptr %argv, i64 8
  %0 = load ptr, ptr %arrayidx, align 8
  %call = call i32 @getLongLongFromObjectOrReply(ptr noundef %c, ptr noundef %0, ptr noundef nonnull %ll, ptr noundef null) #22
  %cmp1.not = icmp eq i32 %call, 0
  br i1 %cmp1.not, label %while.body.preheader, label %return

while.body.preheader:                             ; preds = %if.then
  %1 = load i64, ptr %ll, align 8
  store i64 %1, ptr %val, align 8
  br label %while.body

while.body.us:                                    ; preds = %entry, %while.cond.us
  %sz.017.us = phi i64 [ %div16.us, %while.cond.us ], [ 8, %entry ]
  store i64 %sz.017.us, ptr %zz, align 8
  %2 = load ptr, ptr %argv, align 8
  %ptr.us = getelementptr inbounds i8, ptr %2, i64 8
  %3 = load ptr, ptr %ptr.us, align 8
  %call12.us = call i32 @je_mallctl(ptr noundef %3, ptr noundef nonnull %old, ptr noundef nonnull %zz, ptr noundef null, i64 noundef 0) #22
  switch i32 %call12.us, label %if.end26 [
    i32 0, label %if.else
    i32 22, label %while.cond.us
  ]

while.cond.us:                                    ; preds = %while.body.us
  %div16.us = lshr i64 %sz.017.us, 1
  %cmp4.not.us = icmp ult i64 %sz.017.us, 2
  br i1 %cmp4.not.us, label %while.end, label %while.body.us, !llvm.loop !16

while.cond:                                       ; preds = %if.end23
  %div16 = lshr i64 %sz.017, 1
  %cmp4.not = icmp ult i64 %sz.017, 2
  br i1 %cmp4.not, label %while.end, label %while.body, !llvm.loop !16

while.body:                                       ; preds = %while.body.preheader, %while.cond
  %sz.017 = phi i64 [ %div16, %while.cond ], [ 8, %while.body.preheader ]
  store i64 %sz.017, ptr %zz, align 8
  %4 = load ptr, ptr %argv, align 8
  %ptr = getelementptr inbounds i8, ptr %4, i64 8
  %5 = load ptr, ptr %ptr, align 8
  %call12 = call i32 @je_mallctl(ptr noundef %5, ptr noundef nonnull %old, ptr noundef nonnull %zz, ptr noundef nonnull %val, i64 noundef %sz.017) #22
  switch i32 %call12, label %if.end23 [
    i32 0, label %if.else
    i32 1, label %if.then16
  ]

if.then16:                                        ; preds = %while.body
  %6 = load ptr, ptr %argv, align 8
  %ptr18 = getelementptr inbounds i8, ptr %6, i64 8
  %7 = load ptr, ptr %ptr18, align 8
  %call19 = call i32 @je_mallctl(ptr noundef %7, ptr noundef null, ptr noundef null, ptr noundef nonnull %val, i64 noundef %sz.017) #22
  %tobool20.not = icmp eq i32 %call19, 0
  br i1 %tobool20.not, label %if.then21, label %if.end23

if.then21:                                        ; preds = %if.then16
  %8 = load ptr, ptr @shared, align 8
  call void @addReply(ptr noundef %c, ptr noundef %8) #22
  br label %return

if.end23:                                         ; preds = %while.body, %if.then16
  %ret.0 = phi i32 [ %call19, %if.then16 ], [ %call12, %while.body ]
  %cmp24 = icmp eq i32 %ret.0, 22
  br i1 %cmp24, label %while.cond, label %if.end26

if.end26:                                         ; preds = %while.body.us, %if.end23
  %.us-phi = phi i32 [ %ret.0, %if.end23 ], [ %call12.us, %while.body.us ]
  %call27 = call ptr @strerror(i32 noundef %.us-phi) #22
  call void (ptr, ptr, ...) @addReplyErrorFormat(ptr noundef %c, ptr noundef nonnull @.str.7, ptr noundef %call27) #22
  br label %return

if.else:                                          ; preds = %while.body.us, %while.body
  %9 = load i64, ptr %old, align 8
  call void @addReplyLongLong(ptr noundef %c, i64 noundef %9) #22
  br label %return

while.end:                                        ; preds = %while.cond.us, %while.cond
  %call28 = call ptr @strerror(i32 noundef 22) #22
  call void (ptr, ptr, ...) @addReplyErrorFormat(ptr noundef %c, ptr noundef nonnull @.str.7, ptr noundef %call28) #22
  br label %return

return:                                           ; preds = %if.then, %while.end, %if.else, %if.end26, %if.then21
  ret void
}